target datalayout = "e-m:e-p270:32:32-p271:32:32-p272:64:64-i64:64-i128:128-f80:128-n8:16:32:64-S128"
target triple = "x86_64-pc-linux-gnu"

%struct.RedisModuleKey = type { ptr, ptr, ptr, ptr, ptr, i32, %union.anon }
%union.anon = type { %struct.anon }
%struct.anon = type { %struct.listTypeEntry, i64 }
%struct.listTypeEntry = type { ptr, ptr, %struct.quicklistEntry }
%struct.quicklistEntry = type { ptr, ptr, ptr, ptr, i64, i64, i32 }

; Function Attrs: nounwind uwtable
define dso_local i32 @moduleDelKeyIfEmpty(ptr noundef %0) #0 {
  %2 = alloca i32, align 4
  %3 = alloca ptr, align 8
  %4 = alloca i32, align 4
  %5 = alloca ptr, align 8
  %6 = alloca i32, align 4
  store ptr %0, ptr %3, align 8, !tbaa !64
  %7 = load ptr, ptr %3, align 8, !tbaa !64
  %8 = getelementptr inbounds nuw %struct.RedisModuleKey, ptr %7, i32 0, i32 5
  %9 = load i32, ptr %8, align 8, !tbaa !66
  %10 = and i32 %9, 2
  %11 = icmp ne i32 %10, 0
  br i1 %11, label %12, label %17

12:                                               ; preds = %1
  %13 = load ptr, ptr %3, align 8, !tbaa !64
  %14 = getelementptr inbounds nuw %struct.RedisModuleKey, ptr %13, i32 0, i32 3
  %15 = load ptr, ptr %14, align 8, !tbaa !68
  %16 = icmp eq ptr %15, null
  br i1 %16, label %17, label %18

17:                                               ; preds = %12, %1
  store i32 0, ptr %2, align 4
  br label %73

18:                                               ; preds = %12
  call void @llvm.lifetime.start.p0(i64 4, ptr %4) #15
  call void @llvm.lifetime.start.p0(i64 8, ptr %5) #15
  %19 = load ptr, ptr %3, align 8, !tbaa !64
  %20 = getelementptr inbounds nuw %struct.RedisModuleKey, ptr %19, i32 0, i32 3
  %21 = load ptr, ptr %20, align 8, !tbaa !68
  store ptr %21, ptr %5, align 8, !tbaa !69
  %22 = load ptr, ptr %5, align 8, !tbaa !69
  %23 = load i32, ptr %22, align 8
  %24 = and i32 %23, 15
  switch i32 %24, label %50 [
    i32 1, label %25
    i32 2, label %30
    i32 3, label %35
    i32 4, label %40
    i32 6, label %45
  ]

25:                                               ; preds = %18
  %26 = load ptr, ptr %5, align 8, !tbaa !69
  %27 = call i64 @listTypeLength(ptr noundef %26)
  %28 = icmp eq i64 %27, 0
  %29 = zext i1 %28 to i32
  store i32 %29, ptr %4, align 4, !tbaa !29
  br label %51

30:                                               ; preds = %18
  %31 = load ptr, ptr %5, align 8, !tbaa !69
  %32 = call i64 @setTypeSize(ptr noundef %31)
  %33 = icmp eq i64 %32, 0
  %34 = zext i1 %33 to i32
  store i32 %34, ptr %4, align 4, !tbaa !29
  br label %51

35:                                               ; preds = %18
  %36 = load ptr, ptr %5, align 8, !tbaa !69
  %37 = call i64 @zsetLength(ptr noundef %36)
  %38 = icmp eq i64 %37, 0
  %39 = zext i1 %38 to i32
  store i32 %39, ptr %4, align 4, !tbaa !29
  br label %51

40:                                               ; preds = %18
  %41 = load ptr, ptr %5, align 8, !tbaa !69
  %42 = call i64 @hashTypeLength(ptr noundef %41, i32 noundef 0)
  %43 = icmp eq i64 %42, 0
  %44 = zext i1 %43 to i32
  store i32 %44, ptr %4, align 4, !tbaa !29
  br label %51

45:                                               ; preds = %18
  %46 = load ptr, ptr %5, align 8, !tbaa !69
  %47 = call i64 @streamLength(ptr noundef %46)
  %48 = icmp eq i64 %47, 0
  %49 = zext i1 %48 to i32
  store i32 %49, ptr %4, align 4, !tbaa !29
  br label %51

50:                                               ; preds = %18
  store i32 0, ptr %4, align 4, !tbaa !29
  br label %51

51:                                               ; preds = %50, %45, %40, %35, %30, %25
  %52 = load i32, ptr %4, align 4, !tbaa !29
  %53 = icmp ne i32 %52, 0
  br i1 %53, label %54, label %71

54:                                               ; preds = %51
  %55 = load ptr, ptr %3, align 8, !tbaa !64
  %56 = getelementptr inbounds nuw %struct.RedisModuleKey, ptr %55, i32 0, i32 4
  %57 = load ptr, ptr %56, align 8, !tbaa !73
  %58 = icmp ne ptr %57, null
  br i1 %58, label %59, label %61

59:                                               ; preds = %54
  %60 = load ptr, ptr %3, align 8, !tbaa !64
  call void @moduleFreeKeyIterator(ptr noundef %60)
  br label %61

61:                                               ; preds = %59, %54
  %62 = load ptr, ptr %3, align 8, !tbaa !64
  %63 = getelementptr inbounds nuw %struct.RedisModuleKey, ptr %62, i32 0, i32 1
  %64 = load ptr, ptr %63, align 8, !tbaa !70
  %65 = load ptr, ptr %3, align 8, !tbaa !64
  %66 = getelementptr inbounds nuw %struct.RedisModuleKey, ptr %65, i32 0, i32 2
  %67 = load ptr, ptr %66, align 8, !tbaa !71
  %68 = call i32 @dbDelete(ptr noundef %64, ptr noundef %67)
  %69 = load ptr, ptr %3, align 8, !tbaa !64
  %70 = getelementptr inbounds nuw %struct.RedisModuleKey, ptr %69, i32 0, i32 3
  store ptr null, ptr %70, align 8, !tbaa !68
  store i32 1, ptr %2, align 4
  store i32 1, ptr %6, align 4
  br label %72

71:                                               ; preds = %51
  store i32 0, ptr %2, align 4
  store i32 1, ptr %6, align 4
  br label %72

72:                                               ; preds = %71, %61
  call void @llvm.lifetime.end.p0(i64 8, ptr %5) #15
  call void @llvm.lifetime.end.p0(i64 4, ptr %4) #15
  br label %73

73:                                               ; preds = %72, %17
  %74 = load i32, ptr %2, align 4
  ret i32 %74
}