; Function Attrs: nounwind uwtable
define dso_local range(i32 0, 2) i32 @moduleDelKeyIfEmpty(ptr noundef captures(none) %0) local_unnamed_addr #0 {
  %2 = getelementptr inbounds nuw i8, ptr %0, i64 40
  %3 = load i32, ptr %2, align 8, !tbaa !55
  %4 = and i32 %3, 2
  %.not = icmp eq i32 %4, 0
  br i1 %.not, label %.critedge, label %5

5:                                                ; preds = %1
  %6 = getelementptr inbounds nuw i8, ptr %0, i64 24
  %7 = load ptr, ptr %6, align 8, !tbaa !57
  %8 = icmp eq ptr %7, null
  br i1 %8, label %.critedge, label %9

9:                                                ; preds = %5
  %10 = load i32, ptr %7, align 8
  %11 = and i32 %10, 15
  switch i32 %11, label %.critedge [
    i32 1, label %24
    i32 2, label %12
    i32 3, label %15
    i32 4, label %18
    i32 6, label %21
  ]

12:                                               ; preds = %9
  %13 = tail call i64 @setTypeSize(ptr noundef nonnull %7) #35
  %14 = icmp eq i64 %13, 0
  br i1 %14, label %27, label %.critedge

15:                                               ; preds = %9
  %16 = tail call i64 @zsetLength(ptr noundef nonnull %7) #35
  %17 = icmp eq i64 %16, 0
  br i1 %17, label %27, label %.critedge

18:                                               ; preds = %9
  %19 = tail call i64 @hashTypeLength(ptr noundef nonnull %7, i32 noundef 0) #35
  %20 = icmp eq i64 %19, 0
  br i1 %20, label %27, label %.critedge

21:                                               ; preds = %9
  %22 = tail call i64 @streamLength(ptr noundef nonnull %7) #35
  %23 = icmp eq i64 %22, 0
  br i1 %23, label %27, label %.critedge

24:                                               ; preds = %9
  %25 = tail call i64 @listTypeLength(ptr noundef nonnull %7) #35
  %26 = icmp eq i64 %25, 0
  br i1 %26, label %27, label %.critedge

27:                                               ; preds = %12, %15, %18, %21, %24
  %28 = getelementptr inbounds nuw i8, ptr %0, i64 32
  %29 = load ptr, ptr %28, align 8, !tbaa !61
  %.not17 = icmp eq ptr %29, null
  br i1 %.not17, label %31, label %30

30:                                               ; preds = %27
  tail call fastcc void @moduleFreeKeyIterator(ptr noundef nonnull %0)
  br label %31

31:                                               ; preds = %30, %27
  %32 = getelementptr inbounds nuw i8, ptr %0, i64 8
  %33 = load ptr, ptr %32, align 8, !tbaa !58
  %34 = getelementptr inbounds nuw i8, ptr %0, i64 16
  %35 = load ptr, ptr %34, align 8, !tbaa !59
  %36 = tail call i32 @dbDelete(ptr noundef %33, ptr noundef %35) #35
  store ptr null, ptr %6, align 8, !tbaa !57
  br label %.critedge

.critedge:                                        ; preds = %12, %15, %18, %21, %31, %9, %24, %1, %5
  %.0 = phi i32 [ 0, %5 ], [ 0, %1 ], [ 1, %31 ], [ 0, %9 ], [ 0, %24 ], [ 0, %21 ], [ 0, %18 ], [ 0, %15 ], [ 0, %12 ]
  ret i32 %.0
}